Certificate:
    Data:
        Version: 3 (0x2)
        Serial Number:
            ef:24:3a:b9:05:bf:26:88:92:c1:ef:8e:2e:bd:4e:5a
        Signature Algorithm: sha256WithRSAEncryption
        Issuer: CN=Easy-RSA CA
        Validity
            Not Before: Mar 24 10:14:02 2022 GMT
            Not After : Jun 26 10:14:02 2024 GMT
        Subject: CN=inu
        Subject Public Key Info:
            Public Key Algorithm: rsaEncryption
                RSA Public-Key: (2048 bit)
                Modulus:
                    00:91:6b:15:54:7e:e6:cc:34:b2:06:4e:66:2c:03:
                    c8:7f:30:39:ab:64:d6:bc:f6:20:e6:0c:29:70:67:
                    4f:41:c7:5d:ef:15:16:6d:57:57:c1:48:22:55:a1:
                    e9:09:93:1c:bd:7d:f8:fb:1a:9c:5e:a9:a3:24:b7:
                    6c:80:3a:41:3b:11:8a:be:c8:1e:75:53:bb:c5:53:
                    f0:98:7e:16:09:29:66:8b:57:39:5d:62:f2:0d:23:
                    fc:41:b3:e6:4b:f6:66:30:f9:ab:a8:09:27:9c:30:
                    a6:95:b4:db:d7:5c:16:2e:c6:7d:f4:00:78:4b:5f:
                    bb:29:9a:26:0b:65:be:46:91:42:bf:9c:95:a8:65:
                    d4:bf:76:79:63:a5:8c:4f:9e:3e:c1:09:fe:43:38:
                    88:87:15:5c:45:47:eb:a9:0b:2a:bd:9d:d8:ef:8c:
                    42:df:62:6f:d1:84:47:dd:7b:cf:69:df:94:3b:88:
                    d2:b2:f3:9b:2a:2b:ef:d2:46:d9:fd:39:84:87:c9:
                    7d:0a:e6:a5:5c:e6:42:eb:73:81:89:01:b1:f9:1b:
                    2f:1b:9b:70:e6:ea:76:cc:ee:81:02:a0:5b:86:b4:
                    8d:89:6b:9e:f0:aa:70:aa:24:89:87:92:6c:8a:8d:
                    78:b5:61:97:c2:66:7f:60:e3:f0:52:f6:f4:37:88:
                    9a:b1
                Exponent: 65537 (0x10001)
        X509v3 extensions:
            X509v3 Basic Constraints: 
                CA:FALSE
            X509v3 Subject Key Identifier: 
                1D:19:A5:0D:F6:64:BC:A5:CB:60:08:CE:69:89:50:6A:90:3B:79:8B
            X509v3 Authority Key Identifier: 
                keyid:28:08:E9:10:1E:9B:CA:B6:18:A7:60:A0:B2:64:2D:B7:B3:39:2B:C6
                DirName:/CN=Easy-RSA CA
                serial:60:D1:65:65:12:46:16:D6:A6:E9:DD:2C:E8:58:F1:CB:05:A2:7D:E6

            X509v3 Extended Key Usage: 
                TLS Web Client Authentication
            X509v3 Key Usage: 
                Digital Signature
    Signature Algorithm: sha256WithRSAEncryption
         76:17:08:91:6f:9b:82:35:7c:54:d4:5c:6b:3a:bc:20:d6:ec:
         57:10:a2:f4:44:8a:32:5d:b8:30:78:b8:b7:51:ec:90:f4:6f:
         31:a6:2f:09:6c:d0:16:34:12:a8:46:38:af:28:55:f7:a8:0f:
         1d:31:ca:cb:1a:93:17:31:60:4d:c7:25:5e:8b:01:26:e1:45:
         b3:31:8e:77:24:ef:89:66:48:6f:1b:c5:e3:93:c5:62:d5:fc:
         39:56:fe:09:13:47:8b:8a:f2:93:f6:18:3a:a5:a0:9f:5d:99:
         38:e8:62:ff:a4:ef:e4:76:93:1f:4f:92:4e:d1:7e:07:fd:2b:
         1c:60:07:fe:a7:6a:4c:09:16:db:c4:1c:12:76:66:bc:66:8f:
         c9:db:09:93:21:ea:b5:38:9c:e8:30:3f:de:65:9d:61:a0:45:
         ee:0c:49:b8:89:82:79:6f:6d:2e:16:02:7c:52:8a:fa:8d:bd:
         de:22:f1:f8:a6:55:21:d0:a5:6d:ed:18:21:42:51:40:69:f3:
         81:fc:7e:e2:ca:85:33:0b:25:a5:34:7c:94:e4:25:ba:8a:2f:
         7a:cd:ae:e1:8d:2f:cf:f6:86:82:22:3a:60:4b:3e:ea:38:10:
         08:0e:4e:4a:53:cd:fc:41:79:de:3c:bb:48:e7:34:84:be:be:
         86:31:b3:4c
-----BEGIN CERTIFICATE-----
MIIDUjCCAjqgAwIBAgIRAO8kOrkFvyaIksHvji69TlowDQYJKoZIhvcNAQELBQAw
FjEUMBIGA1UEAwwLRWFzeS1SU0EgQ0EwHhcNMjIwMzI0MTAxNDAyWhcNMjQwNjI2
MTAxNDAyWjAOMQwwCgYDVQQDDANpbnUwggEiMA0GCSqGSIb3DQEBAQUAA4IBDwAw
ggEKAoIBAQCRaxVUfubMNLIGTmYsA8h/MDmrZNa89iDmDClwZ09Bx13vFRZtV1fB
SCJVoekJkxy9ffj7GpxeqaMkt2yAOkE7EYq+yB51U7vFU/CYfhYJKWaLVzldYvIN
I/xBs+ZL9mYw+auoCSecMKaVtNvXXBYuxn30AHhLX7spmiYLZb5GkUK/nJWoZdS/
dnljpYxPnj7BCf5DOIiHFVxFR+upCyq9ndjvjELfYm/RhEfde89p35Q7iNKy85sq
K+/SRtn9OYSHyX0K5qVc5kLrc4GJAbH5Gy8bm3Dm6nbM7oECoFuGtI2Ja57wqnCq
JImHkmyKjXi1YZfCZn9g4/BS9vQ3iJqxAgMBAAGjgaIwgZ8wCQYDVR0TBAIwADAd
BgNVHQ4EFgQUHRmlDfZkvKXLYAjOaYlQapA7eYswUQYDVR0jBEowSIAUKAjpEB6b
yrYYp2CgsmQtt7M5K8ahGqQYMBYxFDASBgNVBAMMC0Vhc3ktUlNBIENBghRg0WVl
EkYW1qbp3SzoWPHLBaJ95jATBgNVHSUEDDAKBggrBgEFBQcDAjALBgNVHQ8EBAMC
B4AwDQYJKoZIhvcNAQELBQADggEBAHYXCJFvm4I1fFTUXGs6vCDW7FcQovREijJd
uDB4uLdR7JD0bzGmLwls0BY0EqhGOK8oVfeoDx0xyssakxcxYE3HJV6LASbhRbMx
jnck74lmSG8bxeOTxWLV/DlW/gkTR4uK8pP2GDqloJ9dmTjoYv+k7+R2kx9Pkk7R
fgf9KxxgB/6nakwJFtvEHBJ2Zrxmj8nbCZMh6rU4nOgwP95lnWGgRe4MSbiJgnlv
bS4WAnxSivqNvd4i8fimVSHQpW3tGCFCUUBp84H8fuLKhTMLJaU0fJTkJbqKL3rN
ruGNL8/2hoIiOmBLPuo4EAgOTkpTzfxBed48u0jnNIS+voYxs0w=
-----END CERTIFICATE-----
